(dp0
S'Christophe Rigotti'
p1
(dp2
I0
(lp3
I1
aI1
asI3
(lp4
I0
aI1
asI5
(lp5
I1
aI1
asI6
(lp6
I0
aI1
asI8
(lp7
I1
aI1
asI9
(lp8
I1
aI1
asI10
(lp9
I0
aI1
asI14
(lp10
I-1
aI1
assS'Vincent Nieto'
p11
(dp12
I0
(lp13
I-1
aI2
asI1
(lp14
I1
aI3
asI2
(lp15
I-1
aI1
asI3
(lp16
I1
aI1
asI4
(lp17
I1
aI2
asI5
(lp18
I1
aI1
asI6
(lp19
I-1
aI2
asI7
(lp20
I0
aI3
asI8
(lp21
I1
aI1
asI11
(lp22
I1
aI1
asI12
(lp23
I-1
aI1
assS'Th\xc3\xa9ophile Sanchez'
p24
(dp25
I0
(lp26
I-1
aI1
asI1
(lp27
I1
aI4
asI2
(lp28
I-1
aI2
asI3
(lp29
I-1
aI3
asI4
(lp30
I1
aI3
asI5
(lp31
I1
aI1
asI6
(lp32
I0
aI1
asI7
(lp33
I0
aI3
asI9
(lp34
I1
aI1
asI10
(lp35
I0
aI1
asI11
(lp36
I-1
aI2
asI12
(lp37
I-1
aI2
asI13
(lp38
I-1
aI1
asI14
(lp39
I1
aI1
assS'Sam Meyer'
p40
(dp41
I1
(lp42
I1
aI3
asI2
(lp43
I1
aI1
asI3
(lp44
F-0.6666666666666666
aI3
asI4
(lp45
I1
aI2
asI5
(lp46
F1.0
aI2
asI7
(lp47
F-1.0
aI3
asI8
(lp48
I1
aI1
asI9
(lp49
F-1.0
aI3
asI10
(lp50
F-0.6666666666666666
aI3
asI11
(lp51
I1
aI2
asI12
(lp52
I-1
aI1
asI13
(lp53
F0.5
aI2
assS'Hubert Charles'
p54
(dp55
I0
(lp56
I1
aI1
asI1
(lp57
I1
aI2
asI2
(lp58
I-1
aI2
asI3
(lp59
I-1
aI3
asI4
(lp60
I-1
aI1
asI5
(lp61
I-1
aI1
asI6
(lp62
I1
aI1
asI7
(lp63
I-1
aI2
asI9
(lp64
I0
aI1
asI10
(lp65
I-1
aI1
asI11
(lp66
I-1
aI1
asI13
(lp67
I-1
aI1
asI14
(lp68
I-1
aI1
assS'H\xc3\xa9di Soula'
p69
(dp70
I0
(lp71
F1.0
aI3
asI1
(lp72
I1
aI2
asI2
(lp73
I-1
aI3
asI3
(lp74
F-1.0
aI2
asI4
(lp75
F-0.75
aI4
asI5
(lp76
F1.0
aI3
asI6
(lp77
I0
aI1
asI7
(lp78
I1
aI2
asI9
(lp79
I1
aI1
asI10
(lp80
I-1
aI1
asI12
(lp81
F-1.0
aI2
asI13
(lp82
F1.0
aI2
assS'Elodie Garnier'
p83
(dp84
I0
(lp85
I-1
aI4
asI1
(lp86
I-1
aI2
asI2
(lp87
I-1
aI2
asI3
(lp88
I0
aI3
asI4
(lp89
I1
aI3
asI5
(lp90
I-1
aI2
asI6
(lp91
I-1
aI2
asI8
(lp92
I1
aI2
asI9
(lp93
I1
aI1
asI10
(lp94
I0
aI2
asI11
(lp95
I-1
aI1
asI12
(lp96
I1
aI2
asI13
(lp97
I0
aI1
asI14
(lp98
I-1
aI2
assS'Christophe Pera'
p99
(dp100
I0
(lp101
I1
aI1
asI1
(lp102
I1
aI3
asI2
(lp103
I-1
aI2
asI3
(lp104
I-1
aI2
asI4
(lp105
I-1
aI2
asI5
(lp106
I1
aI2
asI6
(lp107
I-1
aI2
asI7
(lp108
I-1
aI2
asI9
(lp109
I1
aI2
asI11
(lp110
I1
aI2
asI13
(lp111
I0
aI1
assS'Sandrine Charles'
p112
(dp113
I0
(lp114
I1
aI3
asI1
(lp115
I-1
aI2
asI2
(lp116
I1
aI2
asI3
(lp117
I-1
aI1
asI4
(lp118
I-1
aI2
asI5
(lp119
I1
aI1
asI6
(lp120
I0
aI1
asI7
(lp121
I-1
aI2
asI8
(lp122
I1
aI1
asI9
(lp123
I1
aI1
asI13
(lp124
I0
aI1
asI14
(lp125
I1
aI1
ass.