(dp0
S'Hubert Charles'
p1
(dp2
I1
(lp3
I1
aI1
asI2
(lp4
I0
aI1
asI3
(lp5
I-1
aI1
asI6
(lp6
I1
aI1
asI7
(lp7
I-1
aI1
assS'Vincent Nieto'
p8
(dp9
I0
(lp10
I-1
aI1
asI1
(lp11
I1
aI1
asI3
(lp12
I1
aI1
asI6
(lp13
I-1
aI1
asI7
(lp14
I1
aI1
assS'H\xc3\xa9di Soula'
p15
(dp16
I0
(lp17
I1
aI2
asI1
(lp18
I1
aI1
asI2
(lp19
I-1
aI2
asI3
(lp20
I-1
aI1
asI4
(lp21
I0
aI2
asI5
(lp22
I1
aI1
asI7
(lp23
I1
aI1
assS'Sandrine Charles'
p24
(dp25
I0
(lp26
I1
aI1
asI1
(lp27
I-1
aI1
asI2
(lp28
I1
aI1
asI3
(lp29
I-1
aI1
asI6
(lp30
I0
aI1
assS'Sam Meyer'
p31
(dp32
I1
(lp33
I1
aI1
asI3
(lp34
I-1
aI1
asI4
(lp35
I1
aI1
asI5
(lp36
I1
aI1
asI7
(lp37
I0
aI1
ass.