(dp0
S'Christophe Rigotti'
p1
(dp2
I0
(lp3
F0.6666666666666666
aI3
asI1
(lp4
I1
aI1
asI2
(lp5
I1
aI1
asI3
(lp6
I0
aI1
asI4
(lp7
I0
aI1
asI5
(lp8
F0.5
aI2
asI6
(lp9
F0.0
aI2
asI7
(lp10
F0.0
aI2
asI8
(lp11
F0.6666666666666666
aI3
asI9
(lp12
I1
aI1
asI10
(lp13
F0.0
aI2
asI11
(lp14
I0
aI1
asI12
(lp15
F-0.5
aI2
asI13
(lp16
I1
aI1
asI14
(lp17
I-1
aI1
assS'Thomas Gregoris'
p18
(dp19
I0
(lp20
I-1
aI1
asI2
(lp21
I-1
aI1
asI6
(lp22
I-1
aI1
asI7
(lp23
I1
aI1
asI8
(lp24
I1
aI1
asI11
(lp25
I-1
aI1
asI14
(lp26
I-1
aI1
asI16
(lp27
I0
aI1
asI17
(lp28
I1
aI1
asI19
(lp29
I0
aI1
assS'Loan Vulliard'
p30
(dp31
I0
(lp32
I-1
aI1
asI1
(lp33
I1
aI1
asI4
(lp34
I1
aI1
asI5
(lp35
I1
aI1
asI6
(lp36
I0
aI1
asI7
(lp37
I0
aI1
asI14
(lp38
I-1
aI1
asI15
(lp39
I-1
aI1
asI16
(lp40
I0
aI1
asI18
(lp41
I1
aI1
assS'Samuel Laheux'
p42
(dp43
I0
(lp44
I-1
aI1
asI1
(lp45
I1
aI1
asI3
(lp46
F-0.5
aI2
asI4
(lp47
I1
aI1
asI5
(lp48
I-1
aI1
asI6
(lp49
F-1.0
aI2
asI7
(lp50
I1
aI1
asI8
(lp51
F1.0
aI2
asI11
(lp52
I-1
aI1
asI12
(lp53
F-1.0
aI2
asI14
(lp54
F-1.0
aI2
asI15
(lp55
I-1
aI1
asI16
(lp56
I1
aI1
assS'Elodie Garnier'
p57
(dp58
I0
(lp59
I-1
aI4
asI1
(lp60
I-1
aI2
asI2
(lp61
I-1
aI2
asI3
(lp62
I0
aI3
asI4
(lp63
I1
aI3
asI5
(lp64
I-1
aI2
asI6
(lp65
I-1
aI2
asI8
(lp66
I1
aI2
asI9
(lp67
I1
aI1
asI10
(lp68
I0
aI2
asI11
(lp69
I-1
aI1
asI12
(lp70
I1
aI2
asI13
(lp71
I0
aI1
asI14
(lp72
I-1
aI2
assS'Thomas Chaverondier'
p73
(dp74
I0
(lp75
F-1.0
aI2
asI1
(lp76
I1
aI1
asI3
(lp77
F0.0
aI2
asI5
(lp78
I1
aI1
asI6
(lp79
F-0.5
aI2
asI7
(lp80
F0.0
aI2
asI8
(lp81
F1.0
aI2
asI10
(lp82
F-0.5
aI2
asI11
(lp83
I1
aI1
asI14
(lp84
I-1
aI1
assS'Noelie Debs'
p85
(dp86
I0
(lp87
I-1
aI1
asI1
(lp88
I-1
aI1
asI5
(lp89
I-1
aI1
asI6
(lp90
I-1
aI1
asI7
(lp91
I0
aI1
asI8
(lp92
I1
aI1
asI12
(lp93
I1
aI1
asI14
(lp94
I1
aI1
asI17
(lp95
I1
aI1
asI18
(lp96
I1
aI1
assS'Sam Meyer'
p97
(dp98
I1
(lp99
I1
aI3
asI2
(lp100
I1
aI1
asI3
(lp101
F-0.6666666666666666
aI3
asI4
(lp102
I1
aI2
asI5
(lp103
F1.0
aI2
asI7
(lp104
F-1.0
aI3
asI8
(lp105
I1
aI1
asI9
(lp106
F-1.0
aI3
asI10
(lp107
F-0.6666666666666666
aI3
asI11
(lp108
I1
aI2
asI12
(lp109
I-1
aI1
asI13
(lp110
F0.5
aI2
assS'Hubert Charles'
p111
(dp112
I0
(lp113
F1.0
aI2
asI1
(lp114
F1.0
aI3
asI2
(lp115
F-0.3333333333333333
aI3
asI3
(lp116
F-1.0
aI4
asI4
(lp117
F-0.5
aI2
asI5
(lp118
F-1.0
aI2
asI6
(lp119
F1.0
aI3
asI7
(lp120
F-1.0
aI3
asI8
(lp121
F1.0
aI2
asI9
(lp122
F-0.5
aI2
asI10
(lp123
F-0.5
aI2
asI11
(lp124
F-0.5
aI2
asI13
(lp125
F-1.0
aI2
asI14
(lp126
F-0.5
aI2
assS'Fanny Gallais'
p127
(dp128
I1
(lp129
I-1
aI1
asI2
(lp130
I1
aI1
asI4
(lp131
I1
aI1
asI6
(lp132
I0
aI1
asI9
(lp133
I-1
aI1
asI10
(lp134
I-1
aI1
asI14
(lp135
I-1
aI1
asI15
(lp136
I1
aI1
asI16
(lp137
I-1
aI1
asI19
(lp138
I-1
aI1
assS'Audrey Duran'
p139
(dp140
I0
(lp141
I-1
aI1
asI1
(lp142
I-1
aI1
asI3
(lp143
I0
aI1
asI4
(lp144
I1
aI1
asI5
(lp145
I0
aI1
asI7
(lp146
I0
aI1
asI8
(lp147
I1
aI1
asI11
(lp148
I-1
aI1
asI12
(lp149
I0
aI1
asI16
(lp150
I1
aI1
assS'Marianne Lebre'
p151
(dp152
I1
(lp153
F-1.0
aI2
asI2
(lp154
I-1
aI1
asI3
(lp155
F0.0
aI2
asI4
(lp156
F1.0
aI2
asI6
(lp157
I-1
aI1
asI7
(lp158
I0
aI1
asI8
(lp159
F1.0
aI2
asI10
(lp160
F1.0
aI2
asI11
(lp161
I1
aI1
asI12
(lp162
I0
aI1
asI14
(lp163
I1
aI1
assS'Carino Gurjao'
p164
(dp165
I0
(lp166
I-1
aI1
asI2
(lp167
I-1
aI1
asI3
(lp168
I0
aI1
asI5
(lp169
I0
aI1
asI7
(lp170
I1
aI1
asI8
(lp171
I-1
aI1
asI12
(lp172
I-1
aI1
asI14
(lp173
I-1
aI1
assS'Vincent Nieto'
p174
(dp175
I0
(lp176
F-1.0
aI3
asI1
(lp177
F1.0
aI4
asI2
(lp178
F-1.0
aI2
asI3
(lp179
I1
aI1
asI4
(lp180
I1
aI2
asI5
(lp181
F1.0
aI2
asI6
(lp182
F-1.0
aI3
asI7
(lp183
F0.25
aI4
asI8
(lp184
F1.0
aI2
asI11
(lp185
I1
aI1
asI12
(lp186
F-1.0
aI2
asI16
(lp187
I-1
aI1
asI17
(lp188
I1
aI1
assS'Giorgia Vattiato'
p189
(dp190
I0
(lp191
I-1
aI1
asI2
(lp192
I1
aI1
asI3
(lp193
I0
aI1
asI4
(lp194
I1
aI1
asI6
(lp195
I0
aI1
asI8
(lp196
I-1
aI1
asI13
(lp197
I1
aI1
asI14
(lp198
I-1
aI1
assS'Christophe Pera'
p199
(dp200
I0
(lp201
F1.0
aI2
asI1
(lp202
F1.0
aI5
asI2
(lp203
F-1.0
aI4
asI3
(lp204
F-1.0
aI4
asI4
(lp205
F-1.0
aI3
asI5
(lp206
F1.0
aI3
asI6
(lp207
F-0.6666666666666666
aI3
asI7
(lp208
I-1
aI2
asI9
(lp209
F0.5
aI4
asI10
(lp210
I0
aI1
asI11
(lp211
F1.0
aI3
asI12
(lp212
I-1
aI1
asI13
(lp213
I0
aI1
asI14
(lp214
I1
aI1
assS'Alexis Piat'
p215
(dp216
I0
(lp217
F-0.2
aI5
asI1
(lp218
F1.0
aI5
asI2
(lp219
F0.1
aI10
asI3
(lp220
F0.8571428571428571
aI7
asI4
(lp221
F1.0
aI5
asI5
(lp222
F1.0
aI6
asI6
(lp223
F0.25
aI4
asI7
(lp224
F1.0
aI5
asI8
(lp225
F1.0
aI4
asI9
(lp226
F1.0
aI6
asI10
(lp227
F0.7142857142857143
aI7
asI11
(lp228
F-0.42857142857142855
aI7
asI12
(lp229
F-0.6
aI5
asI13
(lp230
F0.6
aI5
asI14
(lp231
F1.0
aI7
assS'Sandrine Charles'
p232
(dp233
I0
(lp234
F1.0
aI4
asI1
(lp235
F-1.0
aI3
asI2
(lp236
F1.0
aI3
asI3
(lp237
I-1
aI1
asI4
(lp238
I-1
aI2
asI5
(lp239
F0.5
aI2
asI6
(lp240
I0
aI1
asI7
(lp241
F-1.0
aI3
asI8
(lp242
F1.0
aI2
asI9
(lp243
I1
aI1
asI11
(lp244
I1
aI1
asI13
(lp245
I0
aI1
asI14
(lp246
F1.0
aI2
assS'Aziliz Guezou-Philippe'
p247
(dp248
I0
(lp249
I-1
aI1
asI1
(lp250
I-1
aI1
asI2
(lp251
I-1
aI1
asI3
(lp252
I1
aI1
asI4
(lp253
I1
aI1
asI5
(lp254
I-1
aI1
asI6
(lp255
F0.0
aI2
asI7
(lp256
I1
aI1
asI8
(lp257
F1.0
aI2
asI9
(lp258
I1
aI1
asI10
(lp259
F1.0
aI2
asI11
(lp260
I-1
aI1
asI13
(lp261
I0
aI1
asI16
(lp262
I1
aI1
asI18
(lp263
I1
aI1
assS'Hedi Soula'
p264
(dp265
I0
(lp266
F1.0
aI5
asI1
(lp267
F1.0
aI3
asI2
(lp268
F-1.0
aI5
asI3
(lp269
F-1.0
aI3
asI4
(lp270
F-0.8
aI5
asI5
(lp271
F1.0
aI5
asI6
(lp272
F-0.5
aI2
asI7
(lp273
F1.0
aI3
asI8
(lp274
I0
aI1
asI9
(lp275
I1
aI1
asI10
(lp276
F-1.0
aI3
asI12
(lp277
F-1.0
aI3
asI13
(lp278
F1.0
aI3
assS'Paul Young Tie Yang'
p279
(dp280
I0
(lp281
I-1
aI1
asI1
(lp282
I1
aI1
asI2
(lp283
I-1
aI1
asI4
(lp284
I1
aI1
asI6
(lp285
I0
aI1
asI7
(lp286
I-1
aI1
asI9
(lp287
I1
aI1
asI11
(lp288
I0
aI1
asI12
(lp289
I-1
aI1
asI13
(lp290
I-1
aI1
assS'Theophile Sanchez'
p291
(dp292
I0
(lp293
F-1.0
aI2
asI1
(lp294
F1.0
aI5
asI2
(lp295
I-1
aI2
asI3
(lp296
F-1.0
aI4
asI4
(lp297
F1.0
aI4
asI5
(lp298
I1
aI1
asI6
(lp299
F-0.5
aI2
asI7
(lp300
F0.25
aI4
asI9
(lp301
I1
aI1
asI10
(lp302
I0
aI1
asI11
(lp303
I-1
aI2
asI12
(lp304
F-1.0
aI3
asI13
(lp305
I-1
aI1
asI14
(lp306
F1.0
aI2
assS'Olivia Angelin-Bonnet'
p307
(dp308
I0
(lp309
F-1.0
aI2
asI3
(lp310
I1
aI1
asI4
(lp311
I1
aI1
asI5
(lp312
I1
aI1
asI6
(lp313
F-0.5
aI2
asI7
(lp314
I1
aI1
asI8
(lp315
I1
aI1
asI9
(lp316
I-1
aI1
asI10
(lp317
F-0.5
aI2
asI11
(lp318
I-1
aI1
asI12
(lp319
F1.0
aI2
asI14
(lp320
F-1.0
aI2
asI15
(lp321
I0
aI1
ass.