(dp0
S'H\xc3\xa9di Soula'
p1
(dp2
I0
(lp3
I1
aI1
asI1
(lp4
I1
aI1
asI2
(lp5
I-1
aI1
asI4
(lp6
I0
aI1
asI7
(lp7
I1
aI1
ass.(dp0
S'Vincent Nieto'
p1
(dp2
I1
(lp3
I1
aI1
asI2
(lp4
I-1
aI1
asI3
(lp5
I-1
aI1
asI6
(lp6
I0
aI1
asI7
(lp7
I1
aI1
assS'H\xc3\xa9di Soula'
p8
(dp9
I0
(lp10
I1
aI1
asI1
(lp11
I1
aI1
asI2
(lp12
I-1
aI1
asI4
(lp13
I0
aI1
asI7
(lp14
I1
aI1
ass..