(dp0
S''
p1
(dp2
I3
(lp3
I-1
aI1
asI6
(lp4
I-1
aI1
asI7
(lp5
I1
aI1
asI8
(lp6
I1
aI1
asI9
(lp7
I-1
aI1
asI10
(lp8
I-1
aI1
asI12
(lp9
I-1
aI1
asI13
(lp10
I1
aI1
assS'nnn'
p11
(dp12
I1
(lp13
F0.0
aI2
asI3
(lp14
F0.0
aI2
asI5
(lp15
I0
aI1
asI6
(lp16
I0
aI1
asI7
(lp17
I0
aI1
asI8
(lp18
F0.0
aI2
asI9
(lp19
I0
aI1
asI12
(lp20
F0.0
aI2
asI13
(lp21
F0.0
aI2
asI14
(lp22
F0.0
aI2
assS'Christophe Rigotti'
p23
(dp24
I0
(lp25
F0.5
aI2
asI3
(lp26
I0
aI1
asI4
(lp27
I0
aI1
asI5
(lp28
F0.5
aI2
asI6
(lp29
I0
aI1
asI7
(lp30
I0
aI1
asI8
(lp31
F0.5
aI2
asI9
(lp32
I1
aI1
asI10
(lp33
F0.0
aI2
asI11
(lp34
I0
aI1
asI12
(lp35
I0
aI1
asI14
(lp36
I-1
aI1
assS'Olivia Angelin-Bonnet'
p37
(dp38
I0
(lp39
I-1
aI1
asI5
(lp40
I1
aI1
asI6
(lp41
I-1
aI1
asI7
(lp42
I1
aI1
asI9
(lp43
I-1
aI1
asI10
(lp44
I-1
aI1
asI12
(lp45
I1
aI1
asI14
(lp46
I-1
aI1
assS'Carino Gurjao'
p47
(dp48
I0
(lp49
I-1
aI1
asI2
(lp50
I-1
aI1
asI3
(lp51
I0
aI1
asI5
(lp52
I0
aI1
asI7
(lp53
I1
aI1
asI8
(lp54
I-1
aI1
asI12
(lp55
I-1
aI1
asI14
(lp56
I-1
aI1
assS'Vincent Nieto'
p57
(dp58
I0
(lp59
I-1
aI2
asI1
(lp60
I1
aI3
asI2
(lp61
I-1
aI1
asI3
(lp62
I1
aI1
asI4
(lp63
I1
aI2
asI5
(lp64
I1
aI1
asI6
(lp65
I-1
aI2
asI7
(lp66
I0
aI3
asI8
(lp67
I1
aI1
asI11
(lp68
I1
aI1
asI12
(lp69
I-1
aI1
assS'Th\xc3\xa9ophile Sanchez'
p70
(dp71
I0
(lp72
I-1
aI1
asI1
(lp73
I1
aI4
asI2
(lp74
I-1
aI2
asI3
(lp75
I-1
aI3
asI4
(lp76
I1
aI3
asI5
(lp77
I1
aI1
asI6
(lp78
I0
aI1
asI7
(lp79
I0
aI3
asI9
(lp80
I1
aI1
asI10
(lp81
I0
aI1
asI11
(lp82
I-1
aI2
asI12
(lp83
I-1
aI2
asI13
(lp84
I-1
aI1
asI14
(lp85
I1
aI1
assS'Sam Meyer'
p86
(dp87
I1
(lp88
I1
aI3
asI2
(lp89
I1
aI1
asI3
(lp90
F-0.6666666666666666
aI3
asI4
(lp91
I1
aI2
asI5
(lp92
F1.0
aI2
asI7
(lp93
F-1.0
aI3
asI8
(lp94
I1
aI1
asI9
(lp95
F-1.0
aI3
asI10
(lp96
F-0.6666666666666666
aI3
asI11
(lp97
I1
aI2
asI12
(lp98
I-1
aI1
asI13
(lp99
F0.5
aI2
assS'yyyy'
p100
(dp101
I0
(lp102
I0
aI1
asI1
(lp103
I0
aI1
asI3
(lp104
I0
aI1
asI5
(lp105
I0
aI1
asI6
(lp106
I0
aI1
asI7
(lp107
I0
aI1
asI8
(lp108
I0
aI1
asI11
(lp109
I0
aI1
assS'Hubert Charles'
p110
(dp111
I0
(lp112
I1
aI1
asI1
(lp113
I1
aI2
asI2
(lp114
I-1
aI2
asI3
(lp115
I-1
aI3
asI4
(lp116
I-1
aI1
asI5
(lp117
I-1
aI1
asI6
(lp118
I1
aI1
asI7
(lp119
I-1
aI2
asI9
(lp120
I0
aI1
asI10
(lp121
I-1
aI1
asI11
(lp122
I-1
aI1
asI13
(lp123
I-1
aI1
asI14
(lp124
I-1
aI1
assS'ndvs'
p125
(dp126
I1
(lp127
I-1
aI1
asI2
(lp128
I-1
aI1
asI5
(lp129
I-1
aI1
asI6
(lp130
I-1
aI1
asI10
(lp131
I-1
aI1
asI11
(lp132
I-1
aI1
asI13
(lp133
I-1
aI1
asI14
(lp134
I-1
aI1
assS'H\xc3\xa9di Soula'
p135
(dp136
I0
(lp137
F1.0
aI4
asI1
(lp138
I1
aI2
asI2
(lp139
F-1.0
aI4
asI3
(lp140
F-1.0
aI3
asI4
(lp141
F-0.8
aI5
asI5
(lp142
F1.0
aI4
asI6
(lp143
I0
aI1
asI7
(lp144
F1.0
aI3
asI9
(lp145
I1
aI1
asI10
(lp146
F-1.0
aI2
asI12
(lp147
F-1.0
aI2
asI13
(lp148
F1.0
aI3
assS'Samuel Laheux'
p149
(dp150
I1
(lp151
I1
aI1
asI3
(lp152
I-1
aI1
asI5
(lp153
I-1
aI1
asI6
(lp154
I-1
aI1
asI7
(lp155
I1
aI1
asI8
(lp156
I1
aI1
asI12
(lp157
I-1
aI1
asI14
(lp158
I-1
aI1
assS'Elodie Garnier'
p159
(dp160
I0
(lp161
I-1
aI4
asI1
(lp162
I-1
aI2
asI2
(lp163
I-1
aI2
asI3
(lp164
I0
aI3
asI4
(lp165
I1
aI3
asI5
(lp166
I-1
aI2
asI6
(lp167
I-1
aI2
asI8
(lp168
I1
aI2
asI9
(lp169
I1
aI1
asI10
(lp170
I0
aI2
asI11
(lp171
I-1
aI1
asI12
(lp172
I1
aI2
asI13
(lp173
I0
aI1
asI14
(lp174
I-1
aI2
assS'Alexis Piat'
p175
(dp176
I0
(lp177
F0.0
aI4
asI1
(lp178
F1.0
aI4
asI2
(lp179
F0.25
aI8
asI3
(lp180
F1.0
aI6
asI4
(lp181
F1.0
aI4
asI5
(lp182
F1.0
aI5
asI6
(lp183
F0.25
aI4
asI7
(lp184
F1.0
aI4
asI8
(lp185
F1.0
aI4
asI9
(lp186
F1.0
aI6
asI10
(lp187
F1.0
aI5
asI11
(lp188
F-0.2
aI5
asI12
(lp189
F-0.5
aI4
asI13
(lp190
F1.0
aI3
asI14
(lp191
F1.0
aI6
assS'Christophe Pera'
p192
(dp193
I0
(lp194
I1
aI1
asI1
(lp195
I1
aI3
asI2
(lp196
I-1
aI2
asI3
(lp197
I-1
aI2
asI4
(lp198
I-1
aI2
asI5
(lp199
I1
aI2
asI6
(lp200
I-1
aI2
asI7
(lp201
I-1
aI2
asI9
(lp202
I1
aI2
asI11
(lp203
I1
aI2
asI13
(lp204
I0
aI1
assS'Thomas Chaverondier'
p205
(dp206
I0
(lp207
I-1
aI1
asI3
(lp208
I0
aI1
asI5
(lp209
I1
aI1
asI6
(lp210
I-1
aI1
asI7
(lp211
I0
aI1
asI8
(lp212
I1
aI1
asI10
(lp213
I0
aI1
asI11
(lp214
I1
aI1
assS'Sandrine Charles'
p215
(dp216
I0
(lp217
I1
aI3
asI1
(lp218
I-1
aI2
asI2
(lp219
I1
aI2
asI3
(lp220
I-1
aI1
asI4
(lp221
I-1
aI2
asI5
(lp222
I1
aI1
asI6
(lp223
I0
aI1
asI7
(lp224
I-1
aI2
asI8
(lp225
I1
aI1
asI9
(lp226
I1
aI1
asI13
(lp227
I0
aI1
asI14
(lp228
I1
aI1
assS'exit'
p229
(dp230
I3
(lp231
I-1
aI1
asI4
(lp232
I-1
aI1
asI5
(lp233
I-1
aI1
asI6
(lp234
I-1
aI1
asI9
(lp235
I1
aI1
asI10
(lp236
I-1
aI1
asI11
(lp237
I-1
aI1
asI14
(lp238
I-1
aI1
ass.