(dp0
S'Vincent Nieto'
p1
(dp2
I0
(lp3
I-1
aI2
asI1
(lp4
I1
aI2
asI3
(lp5
I1
aI1
asI4
(lp6
I1
aI1
asI6
(lp7
I-1
aI2
asI7
(lp8
I0
aI2
assS'Th\xc3\xa9ophile Sanchez'
p9
(dp10
I0
(lp11
I-1
aI1
asI1
(lp12
I1
aI2
asI2
(lp13
I0
aI1
asI3
(lp14
I-1
aI2
asI4
(lp15
I1
aI2
asI6
(lp16
I0
aI1
asI7
(lp17
I1
aI1
assS'Sam Meyer'
p18
(dp19
I1
(lp20
I1
aI1
asI3
(lp21
I-1
aI1
asI4
(lp22
I1
aI1
asI5
(lp23
I1
aI1
asI7
(lp24
I0
aI1
assS'Hubert Charles'
p25
(dp26
I0
(lp27
I1
aI1
asI1
(lp28
I1
aI2
asI2
(lp29
I-1
aI2
asI3
(lp30
I-1
aI2
asI6
(lp31
I1
aI1
asI7
(lp32
I-1
aI2
assS'H\xc3\xa9di Soula'
p33
(dp34
I0
(lp35
I1
aI2
asI1
(lp36
I1
aI1
asI2
(lp37
I-1
aI2
asI3
(lp38
I-1
aI1
asI4
(lp39
I0
aI2
asI5
(lp40
I1
aI1
asI7
(lp41
I1
aI1
assS'Christophe Pera'
p42
(dp43
I1
(lp44
I1
aI1
asI2
(lp45
I-1
aI1
asI4
(lp46
I-1
aI1
asI5
(lp47
I1
aI1
asI7
(lp48
I-1
aI1
assS'Sandrine Charles'
p49
(dp50
I0
(lp51
I1
aI2
asI1
(lp52
I-1
aI2
asI2
(lp53
I1
aI2
asI3
(lp54
I-1
aI1
asI4
(lp55
I-1
aI1
asI6
(lp56
I0
aI1
asI7
(lp57
I-1
aI1
ass.