(dp0
S'Vincent Nieto'
p1
(dp2
I0
(lp3
I-1
aI2
asI1
(lp4
I1
aI3
asI2
(lp5
I-1
aI1
asI3
(lp6
I1
aI1
asI4
(lp7
I1
aI2
asI5
(lp8
I1
aI1
asI6
(lp9
I-1
aI2
asI7
(lp10
I0
aI3
asI8
(lp11
I1
aI1
asI11
(lp12
I1
aI1
asI12
(lp13
I-1
aI1
assS'Th\xc3\xa9ophile Sanchez'
p14
(dp15
I0
(lp16
I-1
aI1
asI1
(lp17
I1
aI4
asI2
(lp18
I-1
aI2
asI3
(lp19
I-1
aI3
asI4
(lp20
I1
aI3
asI5
(lp21
I1
aI1
asI6
(lp22
I0
aI1
asI7
(lp23
I0
aI3
asI9
(lp24
I1
aI1
asI10
(lp25
I0
aI1
asI11
(lp26
I-1
aI2
asI12
(lp27
I-1
aI2
asI13
(lp28
I-1
aI1
asI14
(lp29
I1
aI1
assS'Sam Meyer'
p30
(dp31
I1
(lp32
I1
aI3
asI3
(lp33
I-1
aI2
asI4
(lp34
I1
aI2
asI5
(lp35
I1
aI1
asI7
(lp36
I-1
aI2
asI8
(lp37
I1
aI1
asI9
(lp38
I-1
aI2
asI10
(lp39
I-1
aI2
asI11
(lp40
I1
aI2
asI13
(lp41
I1
aI1
assS'Hubert Charles'
p42
(dp43
I0
(lp44
I1
aI1
asI1
(lp45
I1
aI2
asI2
(lp46
I-1
aI2
asI3
(lp47
I-1
aI3
asI4
(lp48
I-1
aI1
asI5
(lp49
I-1
aI1
asI6
(lp50
I1
aI1
asI7
(lp51
I-1
aI2
asI9
(lp52
I0
aI1
asI10
(lp53
I-1
aI1
asI11
(lp54
I-1
aI1
asI13
(lp55
I-1
aI1
asI14
(lp56
I-1
aI1
assS'H\xc3\xa9di Soula'
p57
(dp58
I0
(lp59
I1
aI2
asI1
(lp60
I1
aI2
asI2
(lp61
I-1
aI3
asI3
(lp62
I-1
aI1
asI4
(lp63
I-1
aI3
asI5
(lp64
I1
aI2
asI7
(lp65
I1
aI2
asI9
(lp66
I1
aI1
asI12
(lp67
I-1
aI1
asI13
(lp68
I1
aI1
assS'Elodie Garnier'
p69
(dp70
I0
(lp71
I-1
aI4
asI1
(lp72
I-1
aI2
asI2
(lp73
I-1
aI2
asI3
(lp74
I0
aI3
asI4
(lp75
I1
aI3
asI5
(lp76
I-1
aI2
asI6
(lp77
I-1
aI2
asI8
(lp78
I1
aI2
asI9
(lp79
I1
aI1
asI10
(lp80
I0
aI2
asI11
(lp81
I-1
aI1
asI12
(lp82
I1
aI2
asI13
(lp83
I0
aI1
asI14
(lp84
I-1
aI2
assS'Christophe Pera'
p85
(dp86
I0
(lp87
I1
aI1
asI1
(lp88
I1
aI3
asI2
(lp89
I-1
aI2
asI3
(lp90
I-1
aI2
asI4
(lp91
I-1
aI2
asI5
(lp92
I1
aI2
asI6
(lp93
I-1
aI2
asI7
(lp94
I-1
aI2
asI9
(lp95
I1
aI2
asI11
(lp96
I1
aI2
asI13
(lp97
I0
aI1
assS'Sandrine Charles'
p98
(dp99
I0
(lp100
I1
aI3
asI1
(lp101
I-1
aI2
asI2
(lp102
I1
aI2
asI3
(lp103
I-1
aI1
asI4
(lp104
I-1
aI2
asI5
(lp105
I1
aI1
asI6
(lp106
I0
aI1
asI7
(lp107
I-1
aI2
asI8
(lp108
I1
aI1
asI9
(lp109
I1
aI1
asI13
(lp110
I0
aI1
asI14
(lp111
I1
aI1
ass.