(dp0
S'Christophe Rigotti'
p1
(dp2
I0
(lp3
F0.6666666666666666
aI3
asI1
(lp4
I1
aI1
asI2
(lp5
I1
aI1
asI3
(lp6
I0
aI1
asI4
(lp7
I0
aI1
asI5
(lp8
F0.5
aI2
asI6
(lp9
F0.0
aI2
asI7
(lp10
F0.0
aI2
asI8
(lp11
F0.6666666666666666
aI3
asI9
(lp12
I1
aI1
asI10
(lp13
F0.0
aI2
asI11
(lp14
I0
aI1
asI12
(lp15
F-0.5
aI2
asI13
(lp16
I1
aI1
asI14
(lp17
I-1
aI1
assS'Thomas Gregoris'
p18
(dp19
I0
(lp20
I-1
aI1
asI2
(lp21
I-1
aI1
asI6
(lp22
I-1
aI1
asI7
(lp23
I1
aI1
asI8
(lp24
I1
aI1
asI11
(lp25
I-1
aI1
asI14
(lp26
I-1
aI1
asI16
(lp27
I0
aI1
asI17
(lp28
I1
aI1
asI19
(lp29
I0
aI1
assS'Loan Vulliard'
p30
(dp31
I0
(lp32
I-1
aI1
asI1
(lp33
F1.0
aI2
asI4
(lp34
F1.0
aI2
asI5
(lp35
I1
aI1
asI6
(lp36
F0.0
aI2
asI7
(lp37
I0
aI1
asI8
(lp38
I1
aI1
asI12
(lp39
I-1
aI1
asI13
(lp40
I0
aI1
asI14
(lp41
I-1
aI1
asI15
(lp42
F-1.0
aI2
asI16
(lp43
F0.0
aI2
asI17
(lp44
I1
aI1
asI18
(lp45
F1.0
aI2
assS'Samuel Laheux'
p46
(dp47
I0
(lp48
I-1
aI1
asI1
(lp49
F1.0
aI2
asI2
(lp50
I1
aI1
asI3
(lp51
F0.0
aI3
asI4
(lp52
I1
aI1
asI5
(lp53
F-1.0
aI2
asI6
(lp54
F-1.0
aI3
asI7
(lp55
F1.0
aI2
asI8
(lp56
F1.0
aI2
asI9
(lp57
I1
aI1
asI10
(lp58
I-1
aI1
asI11
(lp59
I-1
aI1
asI12
(lp60
F-1.0
aI2
asI14
(lp61
F-1.0
aI2
asI15
(lp62
I-1
aI1
asI16
(lp63
I1
aI1
asI17
(lp64
I0
aI1
asI19
(lp65
I1
aI1
assS'Elodie Garnier'
p66
(dp67
I0
(lp68
I-1
aI4
asI1
(lp69
I-1
aI2
asI2
(lp70
F-0.6666666666666666
aI3
asI3
(lp71
I0
aI3
asI4
(lp72
I1
aI3
asI5
(lp73
I-1
aI2
asI6
(lp74
I-1
aI2
asI8
(lp75
I1
aI2
asI9
(lp76
I1
aI1
asI10
(lp77
F0.0
aI3
asI11
(lp78
F-1.0
aI2
asI12
(lp79
F1.0
aI3
asI13
(lp80
F0.0
aI2
asI14
(lp81
F-1.0
aI3
asI15
(lp82
I-1
aI1
asI16
(lp83
I1
aI1
asI18
(lp84
I1
aI1
asI19
(lp85
I-1
aI1
assS'Thomas Chaverondier'
p86
(dp87
I0
(lp88
F-1.0
aI3
asI1
(lp89
F1.0
aI2
asI3
(lp90
F0.0
aI2
asI5
(lp91
I1
aI1
asI6
(lp92
F-0.5
aI2
asI7
(lp93
F0.0
aI2
asI8
(lp94
F1.0
aI3
asI9
(lp95
I1
aI1
asI10
(lp96
F-0.6666666666666666
aI3
asI11
(lp97
F1.0
aI2
asI12
(lp98
I-1
aI1
asI13
(lp99
I1
aI1
asI14
(lp100
F-1.0
aI2
asI19
(lp101
I0
aI1
assS'Theophile Sanchez'
p102
(dp103
I0
(lp104
F-1.0
aI3
asI1
(lp105
F1.0
aI5
asI2
(lp106
I-1
aI2
asI3
(lp107
F-1.0
aI4
asI4
(lp108
F1.0
aI4
asI5
(lp109
F1.0
aI2
asI6
(lp110
F-0.6666666666666666
aI3
asI7
(lp111
F0.25
aI4
asI9
(lp112
F1.0
aI2
asI10
(lp113
F0.5
aI2
asI11
(lp114
I-1
aI2
asI12
(lp115
F-1.0
aI3
asI13
(lp116
I-1
aI1
asI14
(lp117
F1.0
aI3
asI15
(lp118
I-1
aI1
asI16
(lp119
I0
aI1
asI18
(lp120
I1
aI1
asI19
(lp121
I1
aI1
assS'Sam Meyer'
p122
(dp123
I1
(lp124
I1
aI3
asI2
(lp125
I1
aI1
asI3
(lp126
F-0.6666666666666666
aI3
asI4
(lp127
I1
aI2
asI5
(lp128
F1.0
aI2
asI7
(lp129
F-1.0
aI3
asI8
(lp130
I1
aI1
asI9
(lp131
F-1.0
aI3
asI10
(lp132
F-0.6666666666666666
aI3
asI11
(lp133
I1
aI2
asI12
(lp134
I-1
aI1
asI13
(lp135
F0.5
aI2
assS'Hubert Charles'
p136
(dp137
I0
(lp138
F1.0
aI2
asI1
(lp139
F1.0
aI3
asI2
(lp140
F-0.3333333333333333
aI3
asI3
(lp141
F-1.0
aI4
asI4
(lp142
F-0.5
aI2
asI5
(lp143
F-1.0
aI2
asI6
(lp144
F1.0
aI3
asI7
(lp145
F-1.0
aI3
asI8
(lp146
F1.0
aI2
asI9
(lp147
F-0.5
aI2
asI10
(lp148
F-0.5
aI2
asI11
(lp149
F-0.5
aI2
asI13
(lp150
F-1.0
aI2
asI14
(lp151
F-0.5
aI2
assS'Fanny Gallais'
p152
(dp153
I1
(lp154
I-1
aI1
asI2
(lp155
I1
aI1
asI4
(lp156
I1
aI1
asI6
(lp157
I0
aI1
asI9
(lp158
I-1
aI1
asI10
(lp159
I-1
aI1
asI14
(lp160
I-1
aI1
asI15
(lp161
I1
aI1
asI16
(lp162
I-1
aI1
asI19
(lp163
I-1
aI1
assS'Audrey Duran'
p164
(dp165
I0
(lp166
I-1
aI1
asI1
(lp167
I-1
aI1
asI3
(lp168
I0
aI1
asI4
(lp169
I1
aI1
asI5
(lp170
I0
aI1
asI7
(lp171
I0
aI1
asI8
(lp172
I1
aI1
asI11
(lp173
I-1
aI1
asI12
(lp174
I0
aI1
asI16
(lp175
I1
aI1
assS'Marianne Lebre'
p176
(dp177
I1
(lp178
F-1.0
aI2
asI2
(lp179
I-1
aI1
asI3
(lp180
F0.0
aI2
asI4
(lp181
F1.0
aI2
asI6
(lp182
I-1
aI1
asI7
(lp183
I0
aI1
asI8
(lp184
F1.0
aI2
asI10
(lp185
F1.0
aI2
asI11
(lp186
I1
aI1
asI12
(lp187
I0
aI1
asI14
(lp188
I1
aI1
assS'Carino Gurjao'
p189
(dp190
I0
(lp191
I-1
aI1
asI2
(lp192
I-1
aI1
asI3
(lp193
I0
aI1
asI5
(lp194
I0
aI1
asI7
(lp195
I1
aI1
asI8
(lp196
I-1
aI1
asI12
(lp197
I-1
aI1
asI14
(lp198
I-1
aI1
assS'Vincent Nieto'
p199
(dp200
I0
(lp201
F-1.0
aI4
asI1
(lp202
F1.0
aI5
asI2
(lp203
F-0.6666666666666666
aI3
asI3
(lp204
F0.5
aI2
asI4
(lp205
F1.0
aI3
asI5
(lp206
F1.0
aI2
asI6
(lp207
F-1.0
aI3
asI7
(lp208
F0.4
aI5
asI8
(lp209
F1.0
aI3
asI11
(lp210
I1
aI1
asI12
(lp211
F-1.0
aI2
asI14
(lp212
I-1
aI1
asI15
(lp213
I-1
aI1
asI16
(lp214
I-1
aI1
asI17
(lp215
F0.5
aI2
assS'Giorgia Vattiato'
p216
(dp217
I0
(lp218
F-1.0
aI2
asI1
(lp219
I-1
aI1
asI2
(lp220
F1.0
aI2
asI3
(lp221
I0
aI1
asI4
(lp222
F1.0
aI2
asI6
(lp223
F0.0
aI2
asI8
(lp224
I-1
aI1
asI12
(lp225
I1
aI1
asI13
(lp226
F1.0
aI2
asI14
(lp227
I-1
aI1
asI16
(lp228
I0
aI1
asI17
(lp229
I1
aI1
asI19
(lp230
I1
aI1
assS'Christophe Pera'
p231
(dp232
I0
(lp233
F1.0
aI2
asI1
(lp234
F1.0
aI5
asI2
(lp235
F-1.0
aI4
asI3
(lp236
F-1.0
aI4
asI4
(lp237
F-1.0
aI3
asI5
(lp238
F1.0
aI3
asI6
(lp239
F-0.6666666666666666
aI3
asI7
(lp240
I-1
aI2
asI9
(lp241
F0.5
aI4
asI10
(lp242
I0
aI1
asI11
(lp243
F1.0
aI3
asI12
(lp244
I-1
aI1
asI13
(lp245
I0
aI1
asI14
(lp246
I1
aI1
assS'Alexis Piat'
p247
(dp248
I0
(lp249
F-0.3333333333333333
aI6
asI1
(lp250
F1.0
aI5
asI2
(lp251
F0.1
aI10
asI3
(lp252
F0.75
aI8
asI4
(lp253
F1.0
aI6
asI5
(lp254
F1.0
aI6
asI6
(lp255
F0.25
aI4
asI7
(lp256
F0.8333333333333334
aI6
asI8
(lp257
F1.0
aI5
asI9
(lp258
F1.0
aI6
asI10
(lp259
F0.7142857142857143
aI7
asI11
(lp260
F-0.42857142857142855
aI7
asI12
(lp261
F-0.6
aI5
asI13
(lp262
F0.6
aI5
asI14
(lp263
F1.0
aI8
asI15
(lp264
I-1
aI1
asI16
(lp265
I1
aI1
asI17
(lp266
I1
aI1
asI19
(lp267
I-1
aI1
assS'Sandrine Charles'
p268
(dp269
I0
(lp270
F1.0
aI5
asI1
(lp271
F-1.0
aI3
asI2
(lp272
F1.0
aI3
asI3
(lp273
F-1.0
aI2
asI4
(lp274
I-1
aI2
asI5
(lp275
F0.5
aI2
asI6
(lp276
I0
aI1
asI7
(lp277
F-1.0
aI3
asI8
(lp278
F1.0
aI2
asI9
(lp279
F0.5
aI2
asI10
(lp280
I0
aI1
asI11
(lp281
I1
aI1
asI12
(lp282
I1
aI1
asI13
(lp283
F0.5
aI2
asI14
(lp284
F1.0
aI2
asI16
(lp285
I1
aI1
asI17
(lp286
I-1
aI1
asI18
(lp287
I-1
aI1
asI19
(lp288
I0
aI1
assS'Aziliz Guezou-Philippe'
p289
(dp290
I0
(lp291
I-1
aI1
asI1
(lp292
F-1.0
aI2
asI2
(lp293
F-1.0
aI2
asI3
(lp294
F1.0
aI2
asI4
(lp295
F1.0
aI2
asI5
(lp296
I-1
aI1
asI6
(lp297
F0.0
aI2
asI7
(lp298
I1
aI1
asI8
(lp299
F1.0
aI2
asI9
(lp300
F1.0
aI2
asI10
(lp301
F1.0
aI2
asI11
(lp302
F-1.0
aI2
asI13
(lp303
F0.5
aI2
asI14
(lp304
I1
aI1
asI16
(lp305
I1
aI1
asI17
(lp306
I1
aI1
asI18
(lp307
F1.0
aI2
assS'Hedi Soula'
p308
(dp309
I0
(lp310
F1.0
aI5
asI1
(lp311
F1.0
aI3
asI2
(lp312
F-1.0
aI5
asI3
(lp313
F-1.0
aI3
asI4
(lp314
F-0.8
aI5
asI5
(lp315
F1.0
aI5
asI6
(lp316
F-0.5
aI2
asI7
(lp317
F1.0
aI3
asI8
(lp318
I0
aI1
asI9
(lp319
I1
aI1
asI10
(lp320
F-1.0
aI3
asI12
(lp321
F-1.0
aI3
asI13
(lp322
F1.0
aI3
assS'Paul Young Tie Yang'
p323
(dp324
I0
(lp325
I-1
aI1
asI1
(lp326
I1
aI1
asI2
(lp327
I-1
aI1
asI4
(lp328
I1
aI1
asI6
(lp329
I0
aI1
asI7
(lp330
I-1
aI1
asI9
(lp331
I1
aI1
asI11
(lp332
I0
aI1
asI12
(lp333
I-1
aI1
asI13
(lp334
I-1
aI1
assS'Noelie Debs'
p335
(dp336
I0
(lp337
I-1
aI1
asI1
(lp338
I-1
aI1
asI5
(lp339
I-1
aI1
asI6
(lp340
I-1
aI1
asI7
(lp341
I0
aI1
asI8
(lp342
I1
aI1
asI12
(lp343
I1
aI1
asI14
(lp344
I1
aI1
asI17
(lp345
I1
aI1
asI18
(lp346
I1
aI1
assS'Olivia Angelin-Bonnet'
p347
(dp348
I0
(lp349
F-1.0
aI2
asI3
(lp350
I1
aI1
asI4
(lp351
I1
aI1
asI5
(lp352
I1
aI1
asI6
(lp353
F-0.5
aI2
asI7
(lp354
I1
aI1
asI8
(lp355
I1
aI1
asI9
(lp356
I-1
aI1
asI10
(lp357
F-0.5
aI2
asI11
(lp358
I-1
aI1
asI12
(lp359
F1.0
aI2
asI14
(lp360
F-1.0
aI2
asI15
(lp361
I0
aI1
ass.