(dp0
S'Christophe Rigotti'
p1
(dp2
I0
(lp3
F0.6666666666666666
aI3
asI1
(lp4
I1
aI1
asI2
(lp5
I1
aI1
asI3
(lp6
I0
aI1
asI4
(lp7
I0
aI1
asI5
(lp8
F0.5
aI2
asI6
(lp9
F0.0
aI2
asI7
(lp10
F0.0
aI2
asI8
(lp11
F0.6666666666666666
aI3
asI9
(lp12
I1
aI1
asI10
(lp13
F0.0
aI2
asI11
(lp14
I0
aI1
asI12
(lp15
F-0.5
aI2
asI13
(lp16
I1
aI1
asI14
(lp17
I-1
aI1
assS'Thomas Gregoris'
p18
(dp19
I0
(lp20
I-1
aI1
asI2
(lp21
I-1
aI1
asI6
(lp22
I-1
aI1
asI7
(lp23
I1
aI1
asI8
(lp24
I1
aI1
asI11
(lp25
I-1
aI1
asI14
(lp26
I-1
aI1
asI16
(lp27
I0
aI1
asI17
(lp28
I1
aI1
asI19
(lp29
I0
aI1
assS'Loan Vulliard'
p30
(dp31
I0
(lp32
I-1
aI1
asI1
(lp33
I1
aI1
asI4
(lp34
I1
aI1
asI5
(lp35
I1
aI1
asI6
(lp36
I0
aI1
asI7
(lp37
I0
aI1
asI14
(lp38
I-1
aI1
asI15
(lp39
I-1
aI1
asI16
(lp40
I0
aI1
asI18
(lp41
I1
aI1
assS'Samuel Laheux'
p42
(dp43
I0
(lp44
I-1
aI1
asI1
(lp45
I1
aI1
asI3
(lp46
F-0.5
aI2
asI4
(lp47
I1
aI1
asI5
(lp48
I-1
aI1
asI6
(lp49
F-1.0
aI2
asI7
(lp50
I1
aI1
asI8
(lp51
F1.0
aI2
asI11
(lp52
I-1
aI1
asI12
(lp53
F-1.0
aI2
asI14
(lp54
F-1.0
aI2
asI15
(lp55
I-1
aI1
asI16
(lp56
I1
aI1
assS'Elodie Garnier'
p57
(dp58
I0
(lp59
I-1
aI4
asI1
(lp60
I-1
aI2
asI2
(lp61
F-0.6666666666666666
aI3
asI3
(lp62
I0
aI3
asI4
(lp63
I1
aI3
asI5
(lp64
I-1
aI2
asI6
(lp65
I-1
aI2
asI8
(lp66
I1
aI2
asI9
(lp67
I1
aI1
asI10
(lp68
F0.0
aI3
asI11
(lp69
F-1.0
aI2
asI12
(lp70
F1.0
aI3
asI13
(lp71
F0.0
aI2
asI14
(lp72
F-1.0
aI3
asI15
(lp73
I-1
aI1
asI16
(lp74
I1
aI1
asI18
(lp75
I1
aI1
asI19
(lp76
I-1
aI1
assS'Thomas Chaverondier'
p77
(dp78
I0
(lp79
F-1.0
aI2
asI1
(lp80
I1
aI1
asI3
(lp81
F0.0
aI2
asI5
(lp82
I1
aI1
asI6
(lp83
F-0.5
aI2
asI7
(lp84
F0.0
aI2
asI8
(lp85
F1.0
aI2
asI10
(lp86
F-0.5
aI2
asI11
(lp87
I1
aI1
asI14
(lp88
I-1
aI1
assS'Theophile Sanchez'
p89
(dp90
I0
(lp91
F-1.0
aI2
asI1
(lp92
F1.0
aI5
asI2
(lp93
I-1
aI2
asI3
(lp94
F-1.0
aI4
asI4
(lp95
F1.0
aI4
asI5
(lp96
I1
aI1
asI6
(lp97
F-0.5
aI2
asI7
(lp98
F0.25
aI4
asI9
(lp99
I1
aI1
asI10
(lp100
I0
aI1
asI11
(lp101
I-1
aI2
asI12
(lp102
F-1.0
aI3
asI13
(lp103
I-1
aI1
asI14
(lp104
F1.0
aI2
assS'Sam Meyer'
p105
(dp106
I1
(lp107
I1
aI3
asI2
(lp108
I1
aI1
asI3
(lp109
F-0.6666666666666666
aI3
asI4
(lp110
I1
aI2
asI5
(lp111
F1.0
aI2
asI7
(lp112
F-1.0
aI3
asI8
(lp113
I1
aI1
asI9
(lp114
F-1.0
aI3
asI10
(lp115
F-0.6666666666666666
aI3
asI11
(lp116
I1
aI2
asI12
(lp117
I-1
aI1
asI13
(lp118
F0.5
aI2
assS'Hubert Charles'
p119
(dp120
I0
(lp121
F1.0
aI2
asI1
(lp122
F1.0
aI3
asI2
(lp123
F-0.3333333333333333
aI3
asI3
(lp124
F-1.0
aI4
asI4
(lp125
F-0.5
aI2
asI5
(lp126
F-1.0
aI2
asI6
(lp127
F1.0
aI3
asI7
(lp128
F-1.0
aI3
asI8
(lp129
F1.0
aI2
asI9
(lp130
F-0.5
aI2
asI10
(lp131
F-0.5
aI2
asI11
(lp132
F-0.5
aI2
asI13
(lp133
F-1.0
aI2
asI14
(lp134
F-0.5
aI2
assS'Fanny Gallais'
p135
(dp136
I1
(lp137
I-1
aI1
asI2
(lp138
I1
aI1
asI4
(lp139
I1
aI1
asI6
(lp140
I0
aI1
asI9
(lp141
I-1
aI1
asI10
(lp142
I-1
aI1
asI14
(lp143
I-1
aI1
asI15
(lp144
I1
aI1
asI16
(lp145
I-1
aI1
asI19
(lp146
I-1
aI1
assS'Audrey Duran'
p147
(dp148
I0
(lp149
I-1
aI1
asI1
(lp150
I-1
aI1
asI3
(lp151
I0
aI1
asI4
(lp152
I1
aI1
asI5
(lp153
I0
aI1
asI7
(lp154
I0
aI1
asI8
(lp155
I1
aI1
asI11
(lp156
I-1
aI1
asI12
(lp157
I0
aI1
asI16
(lp158
I1
aI1
assS'Marianne Lebre'
p159
(dp160
I1
(lp161
F-1.0
aI2
asI2
(lp162
I-1
aI1
asI3
(lp163
F0.0
aI2
asI4
(lp164
F1.0
aI2
asI6
(lp165
I-1
aI1
asI7
(lp166
I0
aI1
asI8
(lp167
F1.0
aI2
asI10
(lp168
F1.0
aI2
asI11
(lp169
I1
aI1
asI12
(lp170
I0
aI1
asI14
(lp171
I1
aI1
assS'Carino Gurjao'
p172
(dp173
I0
(lp174
I-1
aI1
asI2
(lp175
I-1
aI1
asI3
(lp176
I0
aI1
asI5
(lp177
I0
aI1
asI7
(lp178
I1
aI1
asI8
(lp179
I-1
aI1
asI12
(lp180
I-1
aI1
asI14
(lp181
I-1
aI1
assS'Vincent Nieto'
p182
(dp183
I0
(lp184
F-1.0
aI4
asI1
(lp185
F1.0
aI5
asI2
(lp186
F-0.6666666666666666
aI3
asI3
(lp187
F0.5
aI2
asI4
(lp188
F1.0
aI3
asI5
(lp189
F1.0
aI2
asI6
(lp190
F-1.0
aI3
asI7
(lp191
F0.4
aI5
asI8
(lp192
F1.0
aI3
asI11
(lp193
I1
aI1
asI12
(lp194
F-1.0
aI2
asI14
(lp195
I-1
aI1
asI15
(lp196
I-1
aI1
asI16
(lp197
I-1
aI1
asI17
(lp198
F0.5
aI2
assS'Giorgia Vattiato'
p199
(dp200
I0
(lp201
I-1
aI1
asI2
(lp202
I1
aI1
asI3
(lp203
I0
aI1
asI4
(lp204
I1
aI1
asI6
(lp205
I0
aI1
asI8
(lp206
I-1
aI1
asI13
(lp207
I1
aI1
asI14
(lp208
I-1
aI1
assS'Christophe Pera'
p209
(dp210
I0
(lp211
F1.0
aI2
asI1
(lp212
F1.0
aI5
asI2
(lp213
F-1.0
aI4
asI3
(lp214
F-1.0
aI4
asI4
(lp215
F-1.0
aI3
asI5
(lp216
F1.0
aI3
asI6
(lp217
F-0.6666666666666666
aI3
asI7
(lp218
I-1
aI2
asI9
(lp219
F0.5
aI4
asI10
(lp220
I0
aI1
asI11
(lp221
F1.0
aI3
asI12
(lp222
I-1
aI1
asI13
(lp223
I0
aI1
asI14
(lp224
I1
aI1
assS'Alexis Piat'
p225
(dp226
I0
(lp227
F-0.2
aI5
asI1
(lp228
F1.0
aI5
asI2
(lp229
F0.1
aI10
asI3
(lp230
F0.8571428571428571
aI7
asI4
(lp231
F1.0
aI5
asI5
(lp232
F1.0
aI6
asI6
(lp233
F0.25
aI4
asI7
(lp234
F1.0
aI5
asI8
(lp235
F1.0
aI4
asI9
(lp236
F1.0
aI6
asI10
(lp237
F0.7142857142857143
aI7
asI11
(lp238
F-0.42857142857142855
aI7
asI12
(lp239
F-0.6
aI5
asI13
(lp240
F0.6
aI5
asI14
(lp241
F1.0
aI7
assS'Sandrine Charles'
p242
(dp243
I0
(lp244
F1.0
aI5
asI1
(lp245
F-1.0
aI3
asI2
(lp246
F1.0
aI3
asI3
(lp247
F-1.0
aI2
asI4
(lp248
I-1
aI2
asI5
(lp249
F0.5
aI2
asI6
(lp250
I0
aI1
asI7
(lp251
F-1.0
aI3
asI8
(lp252
F1.0
aI2
asI9
(lp253
F0.5
aI2
asI10
(lp254
I0
aI1
asI11
(lp255
I1
aI1
asI12
(lp256
I1
aI1
asI13
(lp257
F0.5
aI2
asI14
(lp258
F1.0
aI2
asI16
(lp259
I1
aI1
asI17
(lp260
I-1
aI1
asI18
(lp261
I-1
aI1
asI19
(lp262
I0
aI1
assS'Aziliz Guezou-Philippe'
p263
(dp264
I0
(lp265
I-1
aI1
asI1
(lp266
F-1.0
aI2
asI2
(lp267
F-1.0
aI2
asI3
(lp268
F1.0
aI2
asI4
(lp269
F1.0
aI2
asI5
(lp270
I-1
aI1
asI6
(lp271
F0.0
aI2
asI7
(lp272
I1
aI1
asI8
(lp273
F1.0
aI2
asI9
(lp274
F1.0
aI2
asI10
(lp275
F1.0
aI2
asI11
(lp276
F-1.0
aI2
asI13
(lp277
F0.5
aI2
asI14
(lp278
I1
aI1
asI16
(lp279
I1
aI1
asI17
(lp280
I1
aI1
asI18
(lp281
F1.0
aI2
assS'Hedi Soula'
p282
(dp283
I0
(lp284
F1.0
aI5
asI1
(lp285
F1.0
aI3
asI2
(lp286
F-1.0
aI5
asI3
(lp287
F-1.0
aI3
asI4
(lp288
F-0.8
aI5
asI5
(lp289
F1.0
aI5
asI6
(lp290
F-0.5
aI2
asI7
(lp291
F1.0
aI3
asI8
(lp292
I0
aI1
asI9
(lp293
I1
aI1
asI10
(lp294
F-1.0
aI3
asI12
(lp295
F-1.0
aI3
asI13
(lp296
F1.0
aI3
assS'Paul Young Tie Yang'
p297
(dp298
I0
(lp299
I-1
aI1
asI1
(lp300
I1
aI1
asI2
(lp301
I-1
aI1
asI4
(lp302
I1
aI1
asI6
(lp303
I0
aI1
asI7
(lp304
I-1
aI1
asI9
(lp305
I1
aI1
asI11
(lp306
I0
aI1
asI12
(lp307
I-1
aI1
asI13
(lp308
I-1
aI1
assS'Noelie Debs'
p309
(dp310
I0
(lp311
I-1
aI1
asI1
(lp312
I-1
aI1
asI5
(lp313
I-1
aI1
asI6
(lp314
I-1
aI1
asI7
(lp315
I0
aI1
asI8
(lp316
I1
aI1
asI12
(lp317
I1
aI1
asI14
(lp318
I1
aI1
asI17
(lp319
I1
aI1
asI18
(lp320
I1
aI1
assS'Olivia Angelin-Bonnet'
p321
(dp322
I0
(lp323
F-1.0
aI2
asI3
(lp324
I1
aI1
asI4
(lp325
I1
aI1
asI5
(lp326
I1
aI1
asI6
(lp327
F-0.5
aI2
asI7
(lp328
I1
aI1
asI8
(lp329
I1
aI1
asI9
(lp330
I-1
aI1
asI10
(lp331
F-0.5
aI2
asI11
(lp332
I-1
aI1
asI12
(lp333
F1.0
aI2
asI14
(lp334
F-1.0
aI2
asI15
(lp335
I0
aI1
ass.