(dp0
S''
p1
(dp2
I3
(lp3
I-1
aI1
asI6
(lp4
I-1
aI1
asI7
(lp5
I1
aI1
asI8
(lp6
I1
aI1
asI9
(lp7
I-1
aI1
asI10
(lp8
I-1
aI1
asI12
(lp9
I-1
aI1
asI13
(lp10
I1
aI1
assS'nnn'
p11
(dp12
I1
(lp13
F0.0
aI2
asI3
(lp14
F0.0
aI2
asI5
(lp15
I0
aI1
asI6
(lp16
I0
aI1
asI7
(lp17
I0
aI1
asI8
(lp18
F0.0
aI2
asI9
(lp19
I0
aI1
asI12
(lp20
F0.0
aI2
asI13
(lp21
F0.0
aI2
asI14
(lp22
F0.0
aI2
assS'Christophe Rigotti'
p23
(dp24
I0
(lp25
F0.6666666666666666
aI3
asI1
(lp26
I1
aI1
asI2
(lp27
I1
aI1
asI3
(lp28
I0
aI1
asI4
(lp29
I0
aI1
asI5
(lp30
F0.5
aI2
asI6
(lp31
F0.0
aI2
asI7
(lp32
F0.0
aI2
asI8
(lp33
F0.6666666666666666
aI3
asI9
(lp34
I1
aI1
asI10
(lp35
F0.0
aI2
asI11
(lp36
I0
aI1
asI12
(lp37
F-0.5
aI2
asI13
(lp38
I1
aI1
asI14
(lp39
I-1
aI1
assS'Thomas Gregoris'
p40
(dp41
I0
(lp42
I-1
aI1
asI2
(lp43
I-1
aI1
asI6
(lp44
I-1
aI1
asI7
(lp45
I1
aI1
asI8
(lp46
I1
aI1
asI11
(lp47
I-1
aI1
asI14
(lp48
I-1
aI1
asI16
(lp49
I0
aI1
asI17
(lp50
I1
aI1
asI19
(lp51
I0
aI1
assS'yyyy'
p52
(dp53
I0
(lp54
I0
aI1
asI1
(lp55
I0
aI1
asI3
(lp56
I0
aI1
asI5
(lp57
I0
aI1
asI6
(lp58
I0
aI1
asI7
(lp59
I0
aI1
asI8
(lp60
I0
aI1
asI11
(lp61
I0
aI1
assS'ndvs'
p62
(dp63
I1
(lp64
I-1
aI1
asI2
(lp65
I-1
aI1
asI5
(lp66
I-1
aI1
asI6
(lp67
I-1
aI1
asI10
(lp68
I-1
aI1
asI11
(lp69
I-1
aI1
asI13
(lp70
I-1
aI1
asI14
(lp71
I-1
aI1
assS'Samuel Laheux'
p72
(dp73
I0
(lp74
I-1
aI1
asI1
(lp75
I1
aI1
asI3
(lp76
F-0.5
aI2
asI4
(lp77
I1
aI1
asI5
(lp78
I-1
aI1
asI6
(lp79
F-1.0
aI2
asI7
(lp80
I1
aI1
asI8
(lp81
F1.0
aI2
asI11
(lp82
I-1
aI1
asI12
(lp83
F-1.0
aI2
asI14
(lp84
F-1.0
aI2
asI15
(lp85
I-1
aI1
asI16
(lp86
I1
aI1
assS'Elodie Garnier'
p87
(dp88
I0
(lp89
I-1
aI4
asI1
(lp90
I-1
aI2
asI2
(lp91
I-1
aI2
asI3
(lp92
I0
aI3
asI4
(lp93
I1
aI3
asI5
(lp94
I-1
aI2
asI6
(lp95
I-1
aI2
asI8
(lp96
I1
aI2
asI9
(lp97
I1
aI1
asI10
(lp98
I0
aI2
asI11
(lp99
I-1
aI1
asI12
(lp100
I1
aI2
asI13
(lp101
I0
aI1
asI14
(lp102
I-1
aI2
assS'Thomas Chaverondier'
p103
(dp104
I0
(lp105
F-1.0
aI2
asI1
(lp106
I1
aI1
asI3
(lp107
F0.0
aI2
asI5
(lp108
I1
aI1
asI6
(lp109
F-0.5
aI2
asI7
(lp110
F0.0
aI2
asI8
(lp111
F1.0
aI2
asI10
(lp112
F-0.5
aI2
asI11
(lp113
I1
aI1
asI14
(lp114
I-1
aI1
assS'Theophile Sanchez'
p115
(dp116
I2
(lp117
I0
aI1
asI3
(lp118
I0
aI1
asI6
(lp119
I-1
aI1
asI7
(lp120
I1
aI1
asI8
(lp121
I1
aI1
asI9
(lp122
I1
aI1
asI10
(lp123
I1
aI1
asI13
(lp124
I0
aI1
asI15
(lp125
I-1
aI1
asI17
(lp126
I1
aI1
assS'Sam Meyer'
p127
(dp128
I1
(lp129
I1
aI3
asI2
(lp130
I1
aI1
asI3
(lp131
F-0.6666666666666666
aI3
asI4
(lp132
I1
aI2
asI5
(lp133
F1.0
aI2
asI7
(lp134
F-1.0
aI3
asI8
(lp135
I1
aI1
asI9
(lp136
F-1.0
aI3
asI10
(lp137
F-0.6666666666666666
aI3
asI11
(lp138
I1
aI2
asI12
(lp139
I-1
aI1
asI13
(lp140
F0.5
aI2
assS'Hubert Charles'
p141
(dp142
I0
(lp143
F1.0
aI2
asI1
(lp144
F1.0
aI3
asI2
(lp145
F-0.3333333333333333
aI3
asI3
(lp146
F-1.0
aI4
asI4
(lp147
F-0.5
aI2
asI5
(lp148
F-1.0
aI2
asI6
(lp149
F1.0
aI3
asI7
(lp150
F-1.0
aI3
asI8
(lp151
F1.0
aI2
asI9
(lp152
F-0.5
aI2
asI10
(lp153
F-0.5
aI2
asI11
(lp154
F-0.5
aI2
asI13
(lp155
F-1.0
aI2
asI14
(lp156
F-0.5
aI2
assS'exit'
p157
(dp158
I3
(lp159
I-1
aI1
asI4
(lp160
I-1
aI1
asI5
(lp161
I-1
aI1
asI6
(lp162
I-1
aI1
asI9
(lp163
I1
aI1
asI10
(lp164
I-1
aI1
asI11
(lp165
I-1
aI1
asI14
(lp166
I-1
aI1
assS'Audrey Duran'
p167
(dp168
I0
(lp169
I-1
aI1
asI1
(lp170
I-1
aI1
asI3
(lp171
I0
aI1
asI4
(lp172
I1
aI1
asI5
(lp173
I0
aI1
asI7
(lp174
I0
aI1
asI8
(lp175
I1
aI1
asI11
(lp176
I-1
aI1
asI12
(lp177
I0
aI1
asI16
(lp178
I1
aI1
assS'Marianne Lebre'
p179
(dp180
I1
(lp181
F-1.0
aI2
asI2
(lp182
I-1
aI1
asI3
(lp183
F0.0
aI2
asI4
(lp184
F1.0
aI2
asI6
(lp185
I-1
aI1
asI7
(lp186
I0
aI1
asI8
(lp187
F1.0
aI2
asI10
(lp188
F1.0
aI2
asI11
(lp189
I1
aI1
asI12
(lp190
I0
aI1
asI14
(lp191
I1
aI1
assS'Carino Gurjao'
p192
(dp193
I0
(lp194
I-1
aI1
asI2
(lp195
I-1
aI1
asI3
(lp196
I0
aI1
asI5
(lp197
I0
aI1
asI7
(lp198
I1
aI1
asI8
(lp199
I-1
aI1
asI12
(lp200
I-1
aI1
asI14
(lp201
I-1
aI1
assS'Vincent Nieto'
p202
(dp203
I0
(lp204
F-1.0
aI3
asI1
(lp205
F1.0
aI4
asI2
(lp206
F-1.0
aI2
asI3
(lp207
I1
aI1
asI4
(lp208
I1
aI2
asI5
(lp209
F1.0
aI2
asI6
(lp210
F-1.0
aI3
asI7
(lp211
F0.25
aI4
asI8
(lp212
F1.0
aI2
asI11
(lp213
I1
aI1
asI12
(lp214
F-1.0
aI2
asI16
(lp215
I-1
aI1
asI17
(lp216
I1
aI1
assS'Th\xc3\xa9ophile Sanchez'
p217
(dp218
I0
(lp219
F-1.0
aI2
asI1
(lp220
F1.0
aI5
asI2
(lp221
I-1
aI2
asI3
(lp222
F-1.0
aI4
asI4
(lp223
F1.0
aI4
asI5
(lp224
I1
aI1
asI6
(lp225
F-0.5
aI2
asI7
(lp226
F0.25
aI4
asI9
(lp227
I1
aI1
asI10
(lp228
I0
aI1
asI11
(lp229
I-1
aI2
asI12
(lp230
F-1.0
aI3
asI13
(lp231
I-1
aI1
asI14
(lp232
F1.0
aI2
assS'Giorgia Vattiato'
p233
(dp234
I0
(lp235
I-1
aI1
asI2
(lp236
I1
aI1
asI3
(lp237
I0
aI1
asI4
(lp238
I1
aI1
asI6
(lp239
I0
aI1
asI8
(lp240
I-1
aI1
asI13
(lp241
I1
aI1
asI14
(lp242
I-1
aI1
assS'H\xc3\xa9di Soula'
p243
(dp244
I0
(lp245
F1.0
aI5
asI1
(lp246
F1.0
aI3
asI2
(lp247
F-1.0
aI5
asI3
(lp248
F-1.0
aI3
asI4
(lp249
F-0.8
aI5
asI5
(lp250
F1.0
aI5
asI6
(lp251
F-0.5
aI2
asI7
(lp252
F1.0
aI3
asI8
(lp253
I0
aI1
asI9
(lp254
I1
aI1
asI10
(lp255
F-1.0
aI3
asI12
(lp256
F-1.0
aI3
asI13
(lp257
F1.0
aI3
assS'Christophe Pera'
p258
(dp259
I0
(lp260
F1.0
aI2
asI1
(lp261
F1.0
aI5
asI2
(lp262
F-1.0
aI4
asI3
(lp263
F-1.0
aI4
asI4
(lp264
F-1.0
aI3
asI5
(lp265
F1.0
aI3
asI6
(lp266
F-0.6666666666666666
aI3
asI7
(lp267
I-1
aI2
asI9
(lp268
F0.5
aI4
asI10
(lp269
I0
aI1
asI11
(lp270
F1.0
aI3
asI12
(lp271
I-1
aI1
asI13
(lp272
I0
aI1
asI14
(lp273
I1
aI1
assS'Alexis Piat'
p274
(dp275
I0
(lp276
F-0.2
aI5
asI1
(lp277
F1.0
aI5
asI2
(lp278
F0.1
aI10
asI3
(lp279
F0.8571428571428571
aI7
asI4
(lp280
F1.0
aI5
asI5
(lp281
F1.0
aI6
asI6
(lp282
F0.25
aI4
asI7
(lp283
F1.0
aI5
asI8
(lp284
F1.0
aI4
asI9
(lp285
F1.0
aI6
asI10
(lp286
F0.7142857142857143
aI7
asI11
(lp287
F-0.42857142857142855
aI7
asI12
(lp288
F-0.6
aI5
asI13
(lp289
F0.6
aI5
asI14
(lp290
F1.0
aI7
assS'Sandrine Charles'
p291
(dp292
I0
(lp293
F1.0
aI4
asI1
(lp294
F-1.0
aI3
asI2
(lp295
F1.0
aI3
asI3
(lp296
I-1
aI1
asI4
(lp297
I-1
aI2
asI5
(lp298
F0.5
aI2
asI6
(lp299
I0
aI1
asI7
(lp300
F-1.0
aI3
asI8
(lp301
F1.0
aI2
asI9
(lp302
I1
aI1
asI11
(lp303
I1
aI1
asI13
(lp304
I0
aI1
asI14
(lp305
F1.0
aI2
assS'Aziliz Guezou-Philippe'
p306
(dp307
I0
(lp308
I-1
aI1
asI1
(lp309
I-1
aI1
asI2
(lp310
I-1
aI1
asI3
(lp311
I1
aI1
asI4
(lp312
I1
aI1
asI5
(lp313
I-1
aI1
asI6
(lp314
F0.0
aI2
asI7
(lp315
I1
aI1
asI8
(lp316
F1.0
aI2
asI9
(lp317
I1
aI1
asI10
(lp318
F1.0
aI2
asI11
(lp319
I-1
aI1
asI13
(lp320
I0
aI1
asI16
(lp321
I1
aI1
asI18
(lp322
I1
aI1
assS'Loan Vulliard'
p323
(dp324
I0
(lp325
I-1
aI1
asI1
(lp326
I1
aI1
asI4
(lp327
I1
aI1
asI5
(lp328
I1
aI1
asI6
(lp329
I0
aI1
asI7
(lp330
I0
aI1
asI14
(lp331
I-1
aI1
asI15
(lp332
I-1
aI1
asI16
(lp333
I0
aI1
asI18
(lp334
I1
aI1
assS'Paul Young Tie Yang'
p335
(dp336
I0
(lp337
I-1
aI1
asI1
(lp338
I1
aI1
asI2
(lp339
I-1
aI1
asI4
(lp340
I1
aI1
asI6
(lp341
I0
aI1
asI7
(lp342
I-1
aI1
asI9
(lp343
I1
aI1
asI11
(lp344
I0
aI1
asI12
(lp345
I-1
aI1
asI13
(lp346
I-1
aI1
assS'Noelie Debs'
p347
(dp348
I0
(lp349
I-1
aI1
asI1
(lp350
I-1
aI1
asI5
(lp351
I-1
aI1
asI6
(lp352
I-1
aI1
asI7
(lp353
I0
aI1
asI8
(lp354
I1
aI1
asI12
(lp355
I1
aI1
asI14
(lp356
I1
aI1
asI17
(lp357
I1
aI1
asI18
(lp358
I1
aI1
assS'Olivia Angelin-Bonnet'
p359
(dp360
I0
(lp361
F-1.0
aI2
asI3
(lp362
I1
aI1
asI4
(lp363
I1
aI1
asI5
(lp364
I1
aI1
asI6
(lp365
F-0.5
aI2
asI7
(lp366
I1
aI1
asI8
(lp367
I1
aI1
asI9
(lp368
I-1
aI1
asI10
(lp369
F-0.5
aI2
asI11
(lp370
I-1
aI1
asI12
(lp371
F1.0
aI2
asI14
(lp372
F-1.0
aI2
asI15
(lp373
I0
aI1
ass.