(dp0
S''
p1
(dp2
I3
(lp3
I-1
aI1
asI6
(lp4
I-1
aI1
asI7
(lp5
I1
aI1
asI8
(lp6
I1
aI1
asI9
(lp7
I-1
aI1
asI10
(lp8
I-1
aI1
asI12
(lp9
I-1
aI1
asI13
(lp10
I1
aI1
assS'nnn'
p11
(dp12
I1
(lp13
F0.0
aI2
asI3
(lp14
F0.0
aI2
asI5
(lp15
I0
aI1
asI6
(lp16
I0
aI1
asI7
(lp17
I0
aI1
asI8
(lp18
F0.0
aI2
asI9
(lp19
I0
aI1
asI12
(lp20
F0.0
aI2
asI13
(lp21
F0.0
aI2
asI14
(lp22
F0.0
aI2
assS'Christophe Rigotti'
p23
(dp24
I0
(lp25
F0.6666666666666666
aI3
asI1
(lp26
I1
aI1
asI2
(lp27
I1
aI1
asI3
(lp28
I0
aI1
asI4
(lp29
I0
aI1
asI5
(lp30
F0.5
aI2
asI6
(lp31
F0.0
aI2
asI7
(lp32
F0.0
aI2
asI8
(lp33
F0.6666666666666666
aI3
asI9
(lp34
I1
aI1
asI10
(lp35
F0.0
aI2
asI11
(lp36
I0
aI1
asI12
(lp37
F-0.5
aI2
asI13
(lp38
I1
aI1
asI14
(lp39
I-1
aI1
assS'Elodie Garnier'
p40
(dp41
I0
(lp42
I-1
aI4
asI1
(lp43
I-1
aI2
asI2
(lp44
I-1
aI2
asI3
(lp45
I0
aI3
asI4
(lp46
I1
aI3
asI5
(lp47
I-1
aI2
asI6
(lp48
I-1
aI2
asI8
(lp49
I1
aI2
asI9
(lp50
I1
aI1
asI10
(lp51
I0
aI2
asI11
(lp52
I-1
aI1
asI12
(lp53
I1
aI2
asI13
(lp54
I0
aI1
asI14
(lp55
I-1
aI2
assS'Carino Gurjao'
p56
(dp57
I0
(lp58
I-1
aI1
asI2
(lp59
I-1
aI1
asI3
(lp60
I0
aI1
asI5
(lp61
I0
aI1
asI7
(lp62
I1
aI1
asI8
(lp63
I-1
aI1
asI12
(lp64
I-1
aI1
asI14
(lp65
I-1
aI1
assS'Vincent Nieto'
p66
(dp67
I0
(lp68
I-1
aI2
asI1
(lp69
I1
aI3
asI2
(lp70
I-1
aI1
asI3
(lp71
I1
aI1
asI4
(lp72
I1
aI2
asI5
(lp73
I1
aI1
asI6
(lp74
I-1
aI2
asI7
(lp75
I0
aI3
asI8
(lp76
I1
aI1
asI11
(lp77
I1
aI1
asI12
(lp78
I-1
aI1
assS'Th\xc3\xa9ophile Sanchez'
p79
(dp80
I0
(lp81
F-1.0
aI2
asI1
(lp82
F1.0
aI5
asI2
(lp83
I-1
aI2
asI3
(lp84
F-1.0
aI4
asI4
(lp85
F1.0
aI4
asI5
(lp86
I1
aI1
asI6
(lp87
F-0.5
aI2
asI7
(lp88
F0.25
aI4
asI9
(lp89
I1
aI1
asI10
(lp90
I0
aI1
asI11
(lp91
I-1
aI2
asI12
(lp92
F-1.0
aI3
asI13
(lp93
I-1
aI1
asI14
(lp94
F1.0
aI2
assS'Sam Meyer'
p95
(dp96
I1
(lp97
I1
aI3
asI2
(lp98
I1
aI1
asI3
(lp99
F-0.6666666666666666
aI3
asI4
(lp100
I1
aI2
asI5
(lp101
F1.0
aI2
asI7
(lp102
F-1.0
aI3
asI8
(lp103
I1
aI1
asI9
(lp104
F-1.0
aI3
asI10
(lp105
F-0.6666666666666666
aI3
asI11
(lp106
I1
aI2
asI12
(lp107
I-1
aI1
asI13
(lp108
F0.5
aI2
assS'yyyy'
p109
(dp110
I0
(lp111
I0
aI1
asI1
(lp112
I0
aI1
asI3
(lp113
I0
aI1
asI5
(lp114
I0
aI1
asI6
(lp115
I0
aI1
asI7
(lp116
I0
aI1
asI8
(lp117
I0
aI1
asI11
(lp118
I0
aI1
assS'Hubert Charles'
p119
(dp120
I0
(lp121
F1.0
aI2
asI1
(lp122
I1
aI2
asI2
(lp123
I-1
aI2
asI3
(lp124
F-1.0
aI4
asI4
(lp125
I-1
aI1
asI5
(lp126
I-1
aI1
asI6
(lp127
F1.0
aI2
asI7
(lp128
F-1.0
aI3
asI8
(lp129
I1
aI1
asI9
(lp130
I0
aI1
asI10
(lp131
F-0.5
aI2
asI11
(lp132
F-0.5
aI2
asI13
(lp133
F-1.0
aI2
asI14
(lp134
I-1
aI1
assS'Marianne Lebre'
p135
(dp136
I1
(lp137
F-1.0
aI2
asI2
(lp138
I-1
aI1
asI3
(lp139
F0.0
aI2
asI4
(lp140
F1.0
aI2
asI6
(lp141
I-1
aI1
asI7
(lp142
I0
aI1
asI8
(lp143
F1.0
aI2
asI10
(lp144
F1.0
aI2
asI11
(lp145
I1
aI1
asI12
(lp146
I0
aI1
asI14
(lp147
I1
aI1
assS'H\xc3\xa9di Soula'
p148
(dp149
I0
(lp150
F1.0
aI5
asI1
(lp151
F1.0
aI3
asI2
(lp152
F-1.0
aI5
asI3
(lp153
F-1.0
aI3
asI4
(lp154
F-0.8
aI5
asI5
(lp155
F1.0
aI5
asI6
(lp156
F-0.5
aI2
asI7
(lp157
F1.0
aI3
asI8
(lp158
I0
aI1
asI9
(lp159
I1
aI1
asI10
(lp160
F-1.0
aI3
asI12
(lp161
F-1.0
aI3
asI13
(lp162
F1.0
aI3
assS'Samuel Laheux'
p163
(dp164
I1
(lp165
I1
aI1
asI3
(lp166
I-1
aI1
asI5
(lp167
I-1
aI1
asI6
(lp168
I-1
aI1
asI7
(lp169
I1
aI1
asI8
(lp170
I1
aI1
asI12
(lp171
I-1
aI1
asI14
(lp172
I-1
aI1
assS'Olivia Angelin-Bonnet'
p173
(dp174
I0
(lp175
I-1
aI1
asI5
(lp176
I1
aI1
asI6
(lp177
I-1
aI1
asI7
(lp178
I1
aI1
asI9
(lp179
I-1
aI1
asI10
(lp180
I-1
aI1
asI12
(lp181
I1
aI1
asI14
(lp182
I-1
aI1
assS'Thomas Chaverondier'
p183
(dp184
I0
(lp185
F-1.0
aI2
asI1
(lp186
I1
aI1
asI3
(lp187
F0.0
aI2
asI5
(lp188
I1
aI1
asI6
(lp189
F-0.5
aI2
asI7
(lp190
F0.0
aI2
asI8
(lp191
F1.0
aI2
asI10
(lp192
F-0.5
aI2
asI11
(lp193
I1
aI1
asI14
(lp194
I-1
aI1
assS'Christophe Pera'
p195
(dp196
I0
(lp197
F1.0
aI2
asI1
(lp198
F1.0
aI5
asI2
(lp199
F-1.0
aI4
asI3
(lp200
F-1.0
aI4
asI4
(lp201
F-1.0
aI3
asI5
(lp202
F1.0
aI3
asI6
(lp203
F-0.6666666666666666
aI3
asI7
(lp204
I-1
aI2
asI9
(lp205
F0.5
aI4
asI10
(lp206
I0
aI1
asI11
(lp207
F1.0
aI3
asI12
(lp208
I-1
aI1
asI13
(lp209
I0
aI1
asI14
(lp210
I1
aI1
assS'Alexis Piat'
p211
(dp212
I0
(lp213
F-0.2
aI5
asI1
(lp214
F1.0
aI5
asI2
(lp215
F0.1
aI10
asI3
(lp216
F0.8571428571428571
aI7
asI4
(lp217
F1.0
aI5
asI5
(lp218
F1.0
aI6
asI6
(lp219
F0.25
aI4
asI7
(lp220
F1.0
aI5
asI8
(lp221
F1.0
aI4
asI9
(lp222
F1.0
aI6
asI10
(lp223
F0.7142857142857143
aI7
asI11
(lp224
F-0.42857142857142855
aI7
asI12
(lp225
F-0.6
aI5
asI13
(lp226
F0.6
aI5
asI14
(lp227
F1.0
aI7
assS'Sandrine Charles'
p228
(dp229
I0
(lp230
F1.0
aI4
asI1
(lp231
F-1.0
aI3
asI2
(lp232
F1.0
aI3
asI3
(lp233
I-1
aI1
asI4
(lp234
I-1
aI2
asI5
(lp235
F0.5
aI2
asI6
(lp236
I0
aI1
asI7
(lp237
F-1.0
aI3
asI8
(lp238
F1.0
aI2
asI9
(lp239
I1
aI1
asI11
(lp240
I1
aI1
asI13
(lp241
I0
aI1
asI14
(lp242
F1.0
aI2
assS'exit'
p243
(dp244
I3
(lp245
I-1
aI1
asI4
(lp246
I-1
aI1
asI5
(lp247
I-1
aI1
asI6
(lp248
I-1
aI1
asI9
(lp249
I1
aI1
asI10
(lp250
I-1
aI1
asI11
(lp251
I-1
aI1
asI14
(lp252
I-1
aI1
assS'ndvs'
p253
(dp254
I1
(lp255
I-1
aI1
asI2
(lp256
I-1
aI1
asI5
(lp257
I-1
aI1
asI6
(lp258
I-1
aI1
asI10
(lp259
I-1
aI1
asI11
(lp260
I-1
aI1
asI13
(lp261
I-1
aI1
asI14
(lp262
I-1
aI1
assS'Aziliz Guezou-Philippe'
p263
(dp264
I1
(lp265
I-1
aI1
asI2
(lp266
I-1
aI1
asI5
(lp267
I-1
aI1
asI6
(lp268
I0
aI1
asI8
(lp269
I1
aI1
asI9
(lp270
I1
aI1
asI10
(lp271
I1
aI1
asI11
(lp272
I-1
aI1
ass.