(dp0
S'Vincent Nieto'
p1
(dp2
I0
(lp3
I-1
aI2
asI1
(lp4
I1
aI2
asI3
(lp5
I1
aI1
asI4
(lp6
I1
aI1
asI6
(lp7
I-1
aI2
asI7
(lp8
I0
aI2
assS'Sam Meyer'
p9
(dp10
I1
(lp11
I1
aI1
asI3
(lp12
I-1
aI1
asI4
(lp13
I1
aI1
asI5
(lp14
I1
aI1
asI7
(lp15
I0
aI1
assS'Hubert Charles'
p16
(dp17
I1
(lp18
I1
aI1
asI2
(lp19
I0
aI1
asI3
(lp20
I-1
aI1
asI6
(lp21
I1
aI1
asI7
(lp22
I-1
aI1
assS'H\xc3\xa9di Soula'
p23
(dp24
I0
(lp25
I1
aI2
asI1
(lp26
I1
aI1
asI2
(lp27
I-1
aI2
asI3
(lp28
I-1
aI1
asI4
(lp29
I0
aI2
asI5
(lp30
I1
aI1
asI7
(lp31
I1
aI1
assS'Christophe Pera'
p32
(dp33
I1
(lp34
I1
aI1
asI2
(lp35
I-1
aI1
asI4
(lp36
I-1
aI1
asI5
(lp37
I1
aI1
asI7
(lp38
I-1
aI1
assS'Sandrine Charles'
p39
(dp40
I0
(lp41
I1
aI1
asI1
(lp42
I-1
aI1
asI2
(lp43
I1
aI1
asI3
(lp44
I-1
aI1
asI6
(lp45
I0
aI1
ass.